target datalayout = "e-m:e-p270:32:32-p271:32:32-p272:64:64-i64:64-i128:128-f80:128-n8:16:32:64-S128"
target triple = "x86_64-pc-linux-gnu"

; Function Attrs: nounwind uwtable
define internal void @unpremultiply8offset(ptr noundef %0, ptr noundef %1, ptr noundef %2, i64 noundef %3, i64 noundef %4, i64 noundef %5, i32 noundef %6, i32 noundef %7, i32 noundef %8, i32 noundef %9, i32 noundef %10) #1 {
  %12 = alloca ptr, align 8
  %13 = alloca ptr, align 8
  %14 = alloca ptr, align 8
  %15 = alloca i64, align 8
  %16 = alloca i64, align 8
  %17 = alloca i64, align 8
  %18 = alloca i32, align 4
  %19 = alloca i32, align 4
  %20 = alloca i32, align 4
  %21 = alloca i32, align 4
  %22 = alloca i32, align 4
  %23 = alloca i32, align 4
  %24 = alloca i32, align 4
  store ptr %0, ptr %12, align 8, !tbaa !91
  store ptr %1, ptr %13, align 8, !tbaa !91
  store ptr %2, ptr %14, align 8, !tbaa !91
  store i64 %3, ptr %15, align 8, !tbaa !50
  store i64 %4, ptr %16, align 8, !tbaa !50
  store i64 %5, ptr %17, align 8, !tbaa !50
  store i32 %6, ptr %18, align 4, !tbaa !37
  store i32 %7, ptr %19, align 4, !tbaa !37
  store i32 %8, ptr %20, align 4, !tbaa !37
  store i32 %9, ptr %21, align 4, !tbaa !37
  store i32 %10, ptr %22, align 4, !tbaa !37
  call void @llvm.lifetime.start.p0(i64 4, ptr %23) #11
  call void @llvm.lifetime.start.p0(i64 4, ptr %24) #11
  store i32 0, ptr %24, align 4, !tbaa !37
  br label %25

25:                                               ; preds = %147, %11
  %26 = load i32, ptr %24, align 4, !tbaa !37
  %27 = load i32, ptr %19, align 4, !tbaa !37
  %28 = icmp slt i32 %26, %27
  br i1 %28, label %29, label %150

29:                                               ; preds = %25
  store i32 0, ptr %23, align 4, !tbaa !37
  br label %30

30:                                               ; preds = %134, %29
  %31 = load i32, ptr %23, align 4, !tbaa !37
  %32 = load i32, ptr %18, align 4, !tbaa !37
  %33 = icmp slt i32 %31, %32
  br i1 %33, label %34, label %137

34:                                               ; preds = %30
  %35 = load ptr, ptr %13, align 8, !tbaa !91
  %36 = load i32, ptr %23, align 4, !tbaa !37
  %37 = sext i32 %36 to i64
  %38 = getelementptr inbounds i8, ptr %35, i64 %37
  %39 = load i8, ptr %38, align 1, !tbaa !92
  %40 = zext i8 %39 to i32
  %41 = icmp sgt i32 %40, 0
  br i1 %41, label %42, label %123

42:                                               ; preds = %34
  %43 = load ptr, ptr %13, align 8, !tbaa !91
  %44 = load i32, ptr %23, align 4, !tbaa !37
  %45 = sext i32 %44 to i64
  %46 = getelementptr inbounds i8, ptr %43, i64 %45
  %47 = load i8, ptr %46, align 1, !tbaa !92
  %48 = zext i8 %47 to i32
  %49 = icmp slt i32 %48, 255
  br i1 %49, label %50, label %123

50:                                               ; preds = %42
  %51 = load ptr, ptr %12, align 8, !tbaa !91
  %52 = load i32, ptr %23, align 4, !tbaa !37
  %53 = sext i32 %52 to i64
  %54 = getelementptr inbounds i8, ptr %51, i64 %53
  %55 = load i8, ptr %54, align 1, !tbaa !92
  %56 = zext i8 %55 to i32
  %57 = load i32, ptr %22, align 4, !tbaa !37
  %58 = sub nsw i32 %56, %57
  %59 = icmp sgt i32 %58, 0
  br i1 %59, label %60, label %69

60:                                               ; preds = %50
  %61 = load ptr, ptr %12, align 8, !tbaa !91
  %62 = load i32, ptr %23, align 4, !tbaa !37
  %63 = sext i32 %62 to i64
  %64 = getelementptr inbounds i8, ptr %61, i64 %63
  %65 = load i8, ptr %64, align 1, !tbaa !92
  %66 = zext i8 %65 to i32
  %67 = load i32, ptr %22, align 4, !tbaa !37
  %68 = sub nsw i32 %66, %67
  br label %70

69:                                               ; preds = %50
  br label %70

70:                                               ; preds = %69, %60
  %71 = phi i32 [ %68, %60 ], [ 0, %69 ]
  %72 = mul nsw i32 %71, 255
  %73 = load ptr, ptr %13, align 8, !tbaa !91
  %74 = load i32, ptr %23, align 4, !tbaa !37
  %75 = sext i32 %74 to i64
  %76 = getelementptr inbounds i8, ptr %73, i64 %75
  %77 = load i8, ptr %76, align 1, !tbaa !92
  %78 = zext i8 %77 to i32
  %79 = sdiv i32 %72, %78
  %80 = load i32, ptr %22, align 4, !tbaa !37
  %81 = add nsw i32 %79, %80
  %82 = icmp sgt i32 %81, 255
  br i1 %82, label %83, label %84

83:                                               ; preds = %70
  br label %116

84:                                               ; preds = %70
  %85 = load ptr, ptr %12, align 8, !tbaa !91
  %86 = load i32, ptr %23, align 4, !tbaa !37
  %87 = sext i32 %86 to i64
  %88 = getelementptr inbounds i8, ptr %85, i64 %87
  %89 = load i8, ptr %88, align 1, !tbaa !92
  %90 = zext i8 %89 to i32
  %91 = load i32, ptr %22, align 4, !tbaa !37
  %92 = sub nsw i32 %90, %91
  %93 = icmp sgt i32 %92, 0
  br i1 %93, label %94, label %103

94:                                               ; preds = %84
  %95 = load ptr, ptr %12, align 8, !tbaa !91
  %96 = load i32, ptr %23, align 4, !tbaa !37
  %97 = sext i32 %96 to i64
  %98 = getelementptr inbounds i8, ptr %95, i64 %97
  %99 = load i8, ptr %98, align 1, !tbaa !92
  %100 = zext i8 %99 to i32
  %101 = load i32, ptr %22, align 4, !tbaa !37
  %102 = sub nsw i32 %100, %101
  br label %104

103:                                              ; preds = %84
  br label %104

104:                                              ; preds = %103, %94
  %105 = phi i32 [ %102, %94 ], [ 0, %103 ]
  %106 = mul nsw i32 %105, 255
  %107 = load ptr, ptr %13, align 8, !tbaa !91
  %108 = load i32, ptr %23, align 4, !tbaa !37
  %109 = sext i32 %108 to i64
  %110 = getelementptr inbounds i8, ptr %107, i64 %109
  %111 = load i8, ptr %110, align 1, !tbaa !92
  %112 = zext i8 %111 to i32
  %113 = sdiv i32 %106, %112
  %114 = load i32, ptr %22, align 4, !tbaa !37
  %115 = add nsw i32 %113, %114
  br label %116

116:                                              ; preds = %104, %83
  %117 = phi i32 [ 255, %83 ], [ %115, %104 ]
  %118 = trunc i32 %117 to i8
  %119 = load ptr, ptr %14, align 8, !tbaa !91
  %120 = load i32, ptr %23, align 4, !tbaa !37
  %121 = sext i32 %120 to i64
  %122 = getelementptr inbounds i8, ptr %119, i64 %121
  store i8 %118, ptr %122, align 1, !tbaa !92
  br label %133

123:                                              ; preds = %42, %34
  %124 = load ptr, ptr %12, align 8, !tbaa !91
  %125 = load i32, ptr %23, align 4, !tbaa !37
  %126 = sext i32 %125 to i64
  %127 = getelementptr inbounds i8, ptr %124, i64 %126
  %128 = load i8, ptr %127, align 1, !tbaa !92
  %129 = load ptr, ptr %14, align 8, !tbaa !91
  %130 = load i32, ptr %23, align 4, !tbaa !37
  %131 = sext i32 %130 to i64
  %132 = getelementptr inbounds i8, ptr %129, i64 %131
  store i8 %128, ptr %132, align 1, !tbaa !92
  br label %133

133:                                              ; preds = %123, %116
  br label %134

134:                                              ; preds = %133
  %135 = load i32, ptr %23, align 4, !tbaa !37
  %136 = add nsw i32 %135, 1
  store i32 %136, ptr %23, align 4, !tbaa !37
  br label %30, !llvm.loop !95

137:                                              ; preds = %30
  %138 = load i64, ptr %17, align 8, !tbaa !50
  %139 = load ptr, ptr %14, align 8, !tbaa !91
  %140 = getelementptr inbounds i8, ptr %139, i64 %138
  store ptr %140, ptr %14, align 8, !tbaa !91
  %141 = load i64, ptr %15, align 8, !tbaa !50
  %142 = load ptr, ptr %12, align 8, !tbaa !91
  %143 = getelementptr inbounds i8, ptr %142, i64 %141
  store ptr %143, ptr %12, align 8, !tbaa !91
  %144 = load i64, ptr %16, align 8, !tbaa !50
  %145 = load ptr, ptr %13, align 8, !tbaa !91
  %146 = getelementptr inbounds i8, ptr %145, i64 %144
  store ptr %146, ptr %13, align 8, !tbaa !91
  br label %147

147:                                              ; preds = %137
  %148 = load i32, ptr %24, align 4, !tbaa !37
  %149 = add nsw i32 %148, 1
  store i32 %149, ptr %24, align 4, !tbaa !37
  br label %25, !llvm.loop !96

150:                                              ; preds = %25
  call void @llvm.lifetime.end.p0(i64 4, ptr %24) #11
  call void @llvm.lifetime.end.p0(i64 4, ptr %23) #11
  ret void
}