; Function Attrs: nofree norecurse nosync nounwind memory(argmem: readwrite) uwtable
define internal void @unpremultiply8offset(ptr noundef readonly captures(none) %0, ptr noundef readonly captures(none) %1, ptr noundef writeonly captures(none) %2, i64 noundef %3, i64 noundef %4, i64 noundef %5, i32 noundef %6, i32 noundef %7, i32 %8, i32 %9, i32 noundef %10) #5 {
  %12 = icmp sgt i32 %7, 0
  %13 = icmp sgt i32 %6, 0
  %or.cond = and i1 %12, %13
  br i1 %or.cond, label %.preheader.us.preheader, label %._crit_edge55

.preheader.us.preheader:                          ; preds = %11
  %wide.trip.count = zext nneg i32 %6 to i64
  br label %.preheader.us

.preheader.us:                                    ; preds = %.preheader.us.preheader, %._crit_edge.us
  %.054.us = phi i32 [ %34, %._crit_edge.us ], [ 0, %.preheader.us.preheader ]
  %.04053.us = phi ptr [ %32, %._crit_edge.us ], [ %0, %.preheader.us.preheader ]
  %.04152.us = phi ptr [ %33, %._crit_edge.us ], [ %1, %.preheader.us.preheader ]
  %.04251.us = phi ptr [ %31, %._crit_edge.us ], [ %2, %.preheader.us.preheader ]
  br label %14

14:                                               ; preds = %.preheader.us, %29
  %indvars.iv = phi i64 [ 0, %.preheader.us ], [ %indvars.iv.next, %29 ]
  %15 = getelementptr inbounds nuw i8, ptr %.04152.us, i64 %indvars.iv
  %16 = load i8, ptr %15, align 1, !tbaa !78
  switch i8 %16, label %20 [
    i8 0, label %17
    i8 -1, label %17
  ]

17:                                               ; preds = %14, %14
  %18 = getelementptr inbounds nuw i8, ptr %.04053.us, i64 %indvars.iv
  %19 = load i8, ptr %18, align 1, !tbaa !78
  br label %29

20:                                               ; preds = %14
  %21 = getelementptr inbounds nuw i8, ptr %.04053.us, i64 %indvars.iv
  %22 = load i8, ptr %21, align 1, !tbaa !78
  %23 = zext i8 %22 to i32
  %24 = sub nsw i32 %23, %10
  %25 = tail call i32 @llvm.smax.i32(i32 %24, i32 0)
  %spec.select.us = mul i32 %25, 255
  %26 = zext i8 %16 to i32
  %27 = udiv i32 %spec.select.us, %26
  %28 = add nsw i32 %27, %10
  %spec.select4849.us = tail call i32 @llvm.smin.i32(i32 %28, i32 255)
  %spec.select48.us = trunc i32 %spec.select4849.us to i8
  br label %29

29:                                               ; preds = %20, %17
  %spec.select48.us.sink = phi i8 [ %spec.select48.us, %20 ], [ %19, %17 ]
  %30 = getelementptr inbounds nuw i8, ptr %.04251.us, i64 %indvars.iv
  store i8 %spec.select48.us.sink, ptr %30, align 1, !tbaa !78
  %indvars.iv.next = add nuw nsw i64 %indvars.iv, 1
  %exitcond.not = icmp eq i64 %indvars.iv.next, %wide.trip.count
  br i1 %exitcond.not, label %._crit_edge.us, label %14, !llvm.loop !81

._crit_edge.us:                                   ; preds = %29
  %31 = getelementptr inbounds i8, ptr %.04251.us, i64 %5
  %32 = getelementptr inbounds i8, ptr %.04053.us, i64 %3
  %33 = getelementptr inbounds i8, ptr %.04152.us, i64 %4
  %34 = add nuw nsw i32 %.054.us, 1
  %exitcond58.not = icmp eq i32 %34, %7
  br i1 %exitcond58.not, label %._crit_edge55, label %.preheader.us, !llvm.loop !82

._crit_edge55:                                    ; preds = %._crit_edge.us, %11
  ret void
}